(dp0
Vgiants
p1
(dp2
S'relevance'
p3
F0.835405
sS'score'
p4
F0.115015
sS'sentiment'
p5
Vpositive
p6
ssVRockies predictable patterns
p7
(dp8
g3
F0.619022
sg4
F-0.659077
sg5
Vnegative
p9
ssVRockies game
p10
(dp11
g3
F0.603159
sg4
F-0.142358
sg5
g9
ssVRockies Brett Anderson
p12
(dp13
g3
F0.604663
sg4
F-0.464773
sg5
g9
ssVROCKIES VS
p14
(dp15
g3
F0.565327
sg4
F0.0
sg5
Vneutral
p16
ssVRockies vence por
p17
(dp18
g3
F0.652315
sg4
F0.0
sg5
g16
ssVmlb
p19
(dp20
g3
F0.453646
sg4
F0.296559
sg5
g6
ssVRockies shutout
p21
(dp22
g3
F0.592405
sg4
F-0.298494
sg5
g9
ssVrockies
p23
(dp24
g3
F0.95185
sg4
F0.0753673
sg5
g6
ssVRockies club level
p25
(dp26
g3
F0.596112
sg4
F0.0
sg5
g16
ssVGiants vs
p27
(dp28
g3
F0.528081
sg4
F0.207146
sg5
g6
ss.